(dp1
S'recall'
p2
(dp3
S'KNN'
p4
F39.396000000000001
sS'LDA'
p5
F57.238
sS'SVM'
p6
F86.247
sS'QDA'
p7
F85.605000000000004
sS'NB'
p8
F18.449000000000002
sS'Random Forests'
p9
F52.204000000000001
sS'CART'
p10
F40.435000000000002
sS'Multi Layer Perceptron'
p11
F80.793999999999997
sS'LR'
p12
F61.874000000000002
sS'Perceptron'
p13
F41.987000000000002
ssS'precision'
p14
(dp15
g4
F77.406999999999996
sg5
F74.322999999999993
sg6
F74.385000000000005
sg7
F74.308000000000007
sg8
F84.652000000000001
sg9
F79.686000000000007
sg10
F78.319000000000003
sg11
F74.724999999999994
sg12
F74.155000000000001
sg13
F77.266999999999996
ssS'0'
(dp16
S'recall'
p17
(dp18
S'KNN'
p19
F40.936
sS'LDA'
p20
F49.710999999999999
sS'SVM'
p21
F86.117999999999995
sS'QDA'
p22
F85.796999999999997
sS'NB'
p23
F18.384
sS'Random Forests'
p24
F50.768000000000001
sS'CART'
p25
F31.888000000000002
sS'Multi Layer Perceptron'
p26
F68.477000000000004
sS'LR'
p27
F60.832999999999998
sS'Perceptron'
p28
F43.973999999999997
ssS'time'
p29
(dp30
g19
F876.14800000000002
sg20
F801.64999999999998
sg21
F1718.4929999999999
sg22
F787.19899999999996
sg23
F760.16800000000001
sg24
F1144.125
sg25
F800.09400000000005
sg26
F7352.3320000000003
sg27
F830.73500000000001
sg28
F777.81399999999996
ssS'precision'
p31
(dp32
g19
F77.888999999999996
sg20
F76.063999999999993
sg21
F74.370000000000005
sg22
F74.331999999999994
sg23
F86.069000000000003
sg24
F78.100999999999999
sg25
F76.656999999999996
sg26
F74.656000000000006
sg27
F73.379999999999995
sg28
F79.433999999999997
ssS'fscore'
p33
(dp34
g19
F47.856999999999999
sg20
F52.338999999999999
sg21
F79.813999999999993
sg22
F79.653999999999996
sg23
F12.315
sg24
F57.911999999999999
sg25
F35.722000000000001
sg26
F67.646000000000001
sg27
F63.122
sg28
F44.198
ssS'accuracy'
p35
(dp36
g19
F40.936
sg20
F49.710999999999999
sg21
F86.117999999999995
sg22
F85.796999999999997
sg23
F18.384
sg24
F50.768000000000001
sg25
F31.888000000000002
sg26
F68.477000000000004
sg27
F60.832999999999998
sg28
F43.973999999999997
sssS'time'
p37
(dp38
g4
F880.54899999999998
sg5
F784.90599999999995
sg6
F1609.4739999999999
sg7
F817.78399999999999
sg8
F764.40999999999997
sg9
F1198.577
sg10
F793.18499999999995
sg11
F6596.8149999999996
sg12
F787.54899999999998
sg13
F785.14099999999996
ssS'fscore'
p39
(dp40
g4
F46.131
sg5
F60.232999999999997
sg6
F79.878
sg7
F79.557000000000002
sg8
F12.609999999999999
sg9
F57.512
sg10
F42.552
sg11
F77.424000000000007
sg12
F66.341999999999999
sg13
F42.636000000000003
ssS'accuracy'
p41
(dp42
g4
F39.396000000000001
sg5
F57.238
sg6
F86.247
sg7
F85.605000000000004
sg8
F18.449000000000002
sg9
F52.204000000000001
sg10
F40.435000000000002
sg11
F80.793999999999997
sg12
F61.874000000000002
sg13
F41.987000000000002
ss.