(dp1
S'recall'
p2
(dp3
S'KNN'
p4
F50.68
sS'LDA'
p5
F33.914999999999999
sS'SVM'
p6
F90.140000000000001
sS'QDA'
p7
F90.140000000000001
sS'NB'
p8
F58.119999999999997
sS'Random Forests'
p9
F65.004000000000005
sS'CART'
p10
F58.060000000000002
sS'Multi Layer Perceptron'
p11
F77.524000000000001
sS'LR'
p12
F26.687000000000001
sS'Perceptron'
p13
F37.465000000000003
ssS'precision'
p14
(dp15
g4
F83.686000000000007
sg5
F81.977000000000004
sg6
F81.251999999999995
sg7
F81.251999999999995
sg8
F84.576999999999998
sg9
F82.504999999999995
sg10
F81.804000000000002
sg11
F80.831999999999994
sg12
F78.724000000000004
sg13
F65.126000000000005
ssS'2'
(dp16
S'recall'
p17
(dp18
S'KNN'
p19
F52.067
sS'LDA'
p20
F38.225000000000001
sS'SVM'
p21
F90.140000000000001
sS'QDA'
p22
F90.140000000000001
sS'NB'
p23
F63.354999999999997
sS'Random Forests'
p24
F65.319999999999993
sS'CART'
p25
F56.060000000000002
sS'Multi Layer Perceptron'
p26
F88.909000000000006
sS'LR'
p27
F32.055
sS'Perceptron'
p28
F31.446999999999999
ssS'time'
p29
(dp30
g19
F726.39800000000002
sg20
F711.31299999999999
sg21
F851.23000000000002
sg22
F704.41899999999998
sg23
F690.60900000000004
sg24
F927.18899999999996
sg25
F714.26300000000003
sg26
F4413.0659999999998
sg27
F724.00199999999995
sg28
F695.77300000000002
ssS'precision'
p31
(dp32
g19
F83.819999999999993
sg20
F82.375
sg21
F81.251999999999995
sg22
F81.251999999999995
sg23
F84.174999999999997
sg24
F83.921000000000006
sg25
F81.885000000000005
sg26
F81.751000000000005
sg27
F79.530000000000001
sg28
F62.271999999999998
ssS'fscore'
p33
(dp34
g19
F60.405999999999999
sg20
F42.874000000000002
sg21
F85.465000000000003
sg22
F85.465000000000003
sg23
F65.320999999999998
sg24
F71.210999999999999
sg25
F63.942
sg26
F85.064999999999998
sg27
F36.619999999999997
sg28
F35.027000000000001
ssS'accuracy'
p35
(dp36
g19
F52.067
sg20
F38.225000000000001
sg21
F90.140000000000001
sg22
F90.140000000000001
sg23
F63.354999999999997
sg24
F65.319999999999993
sg25
F56.060000000000002
sg26
F88.909000000000006
sg27
F32.055
sg28
F31.446999999999999
sssS'time'
p37
(dp38
g4
F735.05200000000002
sg5
F777.60400000000004
sg6
F837.70899999999995
sg7
F716.70699999999999
sg8
F705.29999999999995
sg9
F943.40599999999995
sg10
F707.25800000000004
sg11
F4309.3230000000003
sg12
F771.14099999999996
sg13
F703.82500000000005
ssS'fscore'
p39
(dp40
g4
F59.186
sg5
F38.973999999999997
sg6
F85.465000000000003
sg7
F85.465000000000003
sg8
F59.316000000000003
sg9
F70.265000000000001
sg10
F65.322999999999993
sg11
F75.099000000000004
sg12
F30.887
sg13
F40.238
ssS'accuracy'
p41
(dp42
g4
F50.68
sg5
F33.914999999999999
sg6
F90.140000000000001
sg7
F90.140000000000001
sg8
F58.119999999999997
sg9
F65.004000000000005
sg10
F58.060000000000002
sg11
F77.524000000000001
sg12
F26.687000000000001
sg13
F37.465000000000003
ss.