(dp1
S'recall'
p2
(dp3
S'KNN'
p4
F42.234999999999999
sS'LDA'
p5
F20.783000000000001
sS'SVM'
p6
F82.472999999999999
sS'QDA'
p7
F82.007999999999996
sS'NB'
p8
F79.149000000000001
sS'Random Forests'
p9
F50.073999999999998
sS'CART'
p10
F46.216999999999999
sS'Multi Layer Perceptron'
p11
F27.317
sS'LR'
p12
F20.783000000000001
sS'Perceptron'
p13
F19.853000000000002
ssS'precision'
p14
(dp15
g4
F74.548000000000002
sg5
F35.908000000000001
sg6
F71.295000000000002
sg7
F67.259
sg8
F70.912000000000006
sg9
F71.771000000000001
sg10
F77.078999999999994
sg11
F59.204999999999998
sg12
F35.908000000000001
sg13
F35.816000000000003
ssS'4'
(dp16
S'recall'
p17
(dp18
S'KNN'
p19
F45.026000000000003
sS'LDA'
p20
F20.783000000000001
sS'SVM'
p21
F82.472999999999999
sS'QDA'
p22
F82.007999999999996
sS'NB'
p23
F77.754000000000005
sS'Random Forests'
p24
F43.698
sS'CART'
p25
F52.206000000000003
sS'Multi Layer Perceptron'
p26
F33.805999999999997
sS'LR'
p27
F20.783000000000001
sS'Perceptron'
p28
F20.783000000000001
ssS'time'
p29
(dp30
g19
F680.346
sg20
F687.84699999999998
sg21
F677.02800000000002
sg22
F673.05600000000004
sg23
F668.88800000000003
sg24
F913.96600000000001
sg25
F674.97299999999996
sg26
F2113.1120000000001
sg27
F693.38499999999999
sg28
F660.20799999999997
ssS'precision'
p31
(dp32
g19
F69.757999999999996
sg20
F35.908000000000001
sg21
F71.295000000000002
sg22
F67.259
sg23
F70.677999999999997
sg24
F72.359999999999999
sg25
F75.676000000000002
sg26
F43.460000000000001
sg27
F35.908000000000001
sg28
F35.908000000000001
ssS'fscore'
p33
(dp34
g19
F48.960999999999999
sg20
F10.618
sg21
F74.920000000000002
sg22
F73.903000000000006
sg23
F73.128
sg24
F47.130000000000003
sg25
F56.377000000000002
sg26
F26.887
sg27
F10.618
sg28
F10.618
ssS'accuracy'
p35
(dp36
g19
F45.026000000000003
sg20
F20.783000000000001
sg21
F82.472999999999999
sg22
F82.007999999999996
sg23
F77.754000000000005
sg24
F43.698
sg25
F52.206000000000003
sg26
F33.805999999999997
sg27
F20.783000000000001
sg28
F20.783000000000001
sssS'time'
p37
(dp38
g4
F684.24800000000005
sg5
F675.81700000000001
sg6
F680.60699999999997
sg7
F671.54700000000003
sg8
F681.38199999999995
sg9
F878.98900000000003
sg10
F679.34000000000003
sg11
F1953.4739999999999
sg12
F671.96799999999996
sg13
F662.42700000000002
ssS'fscore'
p39
(dp40
g4
F44.591000000000001
sg5
F10.618
sg6
F74.920000000000002
sg7
F73.903000000000006
sg8
F73.858999999999995
sg9
F53.694000000000003
sg10
F47.079000000000001
sg11
F22.210000000000001
sg12
F10.618
sg13
F9.7349999999999994
ssS'accuracy'
p41
(dp42
g4
F42.234999999999999
sg5
F20.783000000000001
sg6
F82.472999999999999
sg7
F82.007999999999996
sg8
F79.149000000000001
sg9
F50.073999999999998
sg10
F46.216999999999999
sg11
F27.317
sg12
F20.783000000000001
sg13
F19.853000000000002
ss.