(dp1
S'recall'
p2
(dp3
S'KNN'
p4
F47.854999999999997
sS'LDA'
p5
F54.100999999999999
sS'SVM'
p6
F65.954999999999998
sS'QDA'
p7
F62.267000000000003
sS'NB'
p8
F33.276000000000003
sS'Random Forests'
p9
F51.756999999999998
sS'CART'
p10
F49.427
sS'Multi Layer Perceptron'
p11
F52.548999999999999
sS'LR'
p12
F51.380000000000003
sS'Perceptron'
p13
F62.643999999999998
ssS'precision'
p14
(dp15
g4
F57.223999999999997
sg5
F57.042999999999999
sg6
F46.816000000000003
sg7
F52.823999999999998
sg8
F30.908999999999999
sg9
F58.031999999999996
sg10
F58.579999999999998
sg11
F51.427999999999997
sg12
F49.701999999999998
sg13
F50.662999999999997
ssS'5'
(dp16
S'recall'
p17
(dp18
S'KNN'
p19
F48.060000000000002
sS'LDA'
p20
F52.347000000000001
sS'SVM'
p21
F65.954999999999998
sS'QDA'
p22
F62.070999999999998
sS'NB'
p23
F33.664999999999999
sS'Random Forests'
p24
F49.430999999999997
sS'CART'
p25
F49.216000000000001
sS'Multi Layer Perceptron'
p26
F52.557000000000002
sS'LR'
p27
F45.546999999999997
sS'Perceptron'
p28
F53.863
ssS'time'
p29
(dp30
g19
F737.29399999999998
sg20
F750.72799999999995
sg21
F769.45299999999997
sg22
F705.37
sg23
F683.61400000000003
sg24
F1067.9069999999999
sg25
F695.947
sg26
F3098.3969999999999
sg27
F725.38599999999997
sg28
F703.18200000000002
ssS'precision'
p31
(dp32
g19
F58.414000000000001
sg20
F58.659999999999997
sg21
F47.915999999999997
sg22
F51.988
sg23
F42.116
sg24
F62.252000000000002
sg25
F53.713000000000001
sg26
F51.054000000000002
sg27
F50.359999999999999
sg28
F54.609999999999999
ssS'fscore'
p33
(dp34
g19
F48.293999999999997
sg20
F47.936
sg21
F53.527000000000001
sg22
F54.167999999999999
sg23
F18.928000000000001
sg24
F47.770000000000003
sg25
F49.302999999999997
sg26
F47.552999999999997
sg27
F36.398000000000003
sg28
F48.491999999999997
ssS'accuracy'
p35
(dp36
g19
F48.060000000000002
sg20
F52.347000000000001
sg21
F65.954999999999998
sg22
F62.070999999999998
sg23
F33.664999999999999
sg24
F49.430999999999997
sg25
F49.216000000000001
sg26
F52.557000000000002
sg27
F45.546999999999997
sg28
F53.863
sssS'time'
p37
(dp38
g4
F700.00300000000004
sg5
F691.83799999999997
sg6
F761.03599999999994
sg7
F685.50099999999998
sg8
F679.67100000000005
sg9
F907.29399999999998
sg10
F683.65899999999999
sg11
F2850.482
sg12
F702.404
sg13
F679.86599999999999
ssS'fscore'
p39
(dp40
g4
F48.673000000000002
sg5
F46.728999999999999
sg6
F53.517000000000003
sg7
F54.439
sg8
F18.131
sg9
F51.271000000000001
sg10
F48.917000000000002
sg11
F48.832000000000001
sg12
F41.723999999999997
sg13
F54.847999999999999
ssS'accuracy'
p41
(dp42
g4
F47.854999999999997
sg5
F54.100999999999999
sg6
F65.954999999999998
sg7
F62.267000000000003
sg8
F33.276000000000003
sg9
F51.756999999999998
sg10
F49.427
sg11
F52.548999999999999
sg12
F51.380000000000003
sg13
F62.643999999999998
ss.