(dp1
S'recall'
p2
(dp3
S'KNN'
p4
F54.115000000000002
sS'LDA'
p5
F44.237000000000002
sS'SVM'
p6
F56.843000000000004
sS'QDA'
p7
F50.990000000000002
sS'NB'
p8
F42.521000000000001
sS'Random Forests'
p9
F49.881
sS'CART'
p10
F49.628999999999998
sS'Multi Layer Perceptron'
p11
F40.843000000000004
sS'LR'
p12
F44.048000000000002
sS'Perceptron'
p13
F49.542000000000002
ssS'time'
p14
(dp15
g4
F685.34199999999998
sg5
F685.82500000000005
sg6
F720.08699999999999
sg7
F698.02099999999996
sg8
F676.22000000000003
sg9
F899.66099999999994
sg10
F688.13300000000004
sg11
F2020.0519999999999
sg12
F687.173
sg13
F674.89700000000005
ssS'precision'
p16
(dp17
g4
F50.719999999999999
sg5
F41.146999999999998
sg6
F39.911000000000001
sg7
F41.32
sg8
F40.350000000000001
sg9
F46.753999999999998
sg10
F51.164999999999999
sg11
F33.984999999999999
sg12
F48.796999999999997
sg13
F48.387
ssS'6'
(dp18
S'recall'
p19
(dp20
S'KNN'
p21
F52.616
sS'LDA'
p22
F46.359999999999999
sS'SVM'
p23
F56.628
sS'QDA'
p24
F50.566000000000003
sS'NB'
p25
F41.250999999999998
sS'Random Forests'
p26
F53.238999999999997
sS'CART'
p27
F51.557000000000002
sS'Multi Layer Perceptron'
p28
F44.875
sS'LR'
p29
F43.197000000000003
sS'Perceptron'
p30
F46.783000000000001
ssS'time'
p31
(dp32
g21
F684.93600000000004
sg22
F702.93799999999999
sg23
F733.81799999999998
sg24
F758.53399999999999
sg25
F679.803
sg26
F1056.3309999999999
sg27
F688.16099999999994
sg28
F1979.3019999999999
sg29
F697.53300000000002
sg30
F685.423
ssS'precision'
p33
(dp34
g21
F48.689
sg22
F43.058
sg23
F40.826000000000001
sg24
F36.595999999999997
sg25
F31.373000000000001
sg26
F50.587000000000003
sg27
F49.164000000000001
sg28
F43.448999999999998
sg29
F48.838999999999999
sg30
F40.729999999999997
ssS'fscore'
p35
(dp36
g21
F46.982999999999997
sg22
F38.344000000000001
sg23
F42.957000000000001
sg24
F38.052999999999997
sg25
F26.225000000000001
sg26
F50.655999999999999
sg27
F49.335999999999999
sg28
F38.216000000000001
sg29
F37.054000000000002
sg30
F36.076999999999998
ssS'accuracy'
p37
(dp38
g21
F52.616
sg22
F46.359999999999999
sg23
F56.628
sg24
F50.566000000000003
sg25
F41.250999999999998
sg26
F53.238999999999997
sg27
F51.557000000000002
sg28
F44.875
sg29
F43.197000000000003
sg30
F46.783000000000001
sssS'fscore'
p39
(dp40
g4
F49.25
sg5
F36.302
sg6
F42.829000000000001
sg7
F39.167000000000002
sg8
F29.634
sg9
F46.804000000000002
sg10
F47.493000000000002
sg11
F27.645
sg12
F37.683
sg13
F38.127000000000002
ssS'accuracy'
p41
(dp42
g4
F54.115000000000002
sg5
F44.237000000000002
sg6
F56.843000000000004
sg7
F50.990000000000002
sg8
F42.521000000000001
sg9
F49.881
sg10
F49.628999999999998
sg11
F40.843000000000004
sg12
F44.048000000000002
sg13
F49.542000000000002
ss.