(dp1
S'recall'
p2
(dp3
S'KNN'
p4
F50.621000000000002
sS'LDA'
p5
F49.555
sS'SVM'
p6
F47.465000000000003
sS'QDA'
p7
F47.713000000000001
sS'NB'
p8
F47.642000000000003
sS'Random Forests'
p9
F49.558
sS'CART'
p10
F50.302999999999997
sS'Multi Layer Perceptron'
p11
F49.697000000000003
sS'LR'
p12
F49.555
sS'Perceptron'
p13
F50.335999999999999
ssS'precision'
p14
(dp15
g4
F52.965000000000003
sg5
F55.085999999999999
sg6
F56.5
sg7
F56.859999999999999
sg8
F58.479999999999997
sg9
F51.165999999999997
sg10
F51.058999999999997
sg11
F58.142000000000003
sg12
F55.289999999999999
sg13
F60.843000000000004
ssS'time'
p16
(dp17
g4
F1078.4570000000001
sg5
F961.69500000000005
sg6
F2399.9050000000002
sg7
F925.53700000000003
sg8
F905.56799999999998
sg9
F1216.999
sg10
F937.57899999999995
sg11
F4121.9089999999997
sg12
F974.07299999999998
sg13
F925.14499999999998
ssS'8'
(dp18
S'recall'
p19
(dp20
S'KNN'
p21
F50.125
sS'LDA'
p22
F49.981000000000002
sS'SVM'
p23
F49.661999999999999
sS'QDA'
p24
F47.606999999999999
sS'NB'
p25
F47.642000000000003
sS'Random Forests'
p26
F47.715000000000003
sS'CART'
p27
F49.985999999999997
sS'Multi Layer Perceptron'
p28
F47.572000000000003
sS'LR'
p29
F49.874000000000002
sS'Perceptron'
p30
F51.189
ssS'time'
p31
(dp32
g21
F1091.9349999999999
sg22
F934.34299999999996
sg23
F2656.4499999999998
sg24
F947.14599999999996
sg25
F903.11699999999996
sg26
F1259.684
sg27
F925.56600000000003
sg28
F4849.7370000000001
sg29
F938.30200000000002
sg30
F944.36199999999997
ssS'precision'
p33
(dp34
g21
F52.509
sg22
F55.347999999999999
sg23
F51.899000000000001
sg24
F55.889000000000003
sg25
F59.173000000000002
sg26
F48.795999999999999
sg27
F49.325000000000003
sg28
F54.761000000000003
sg29
F56.965000000000003
sg30
F58.100999999999999
ssS'fscore'
p35
(dp36
g21
F47.713999999999999
sg22
F43.621000000000002
sg23
F35.994
sg24
F34.893999999999998
sg25
F34.218000000000004
sg26
F45.128
sg27
F47.643999999999998
sg28
F37.238999999999997
sg29
F41.652999999999999
sg30
F42.581000000000003
ssS'accuracy'
p37
(dp38
g21
F50.125
sg22
F49.981000000000002
sg23
F49.661999999999999
sg24
F47.606999999999999
sg25
F47.642000000000003
sg26
F47.715000000000003
sg27
F49.985999999999997
sg28
F47.572000000000003
sg29
F49.874000000000002
sg30
F51.189
sssS'fscore'
p39
(dp40
g4
F48.368000000000002
sg5
F41.579000000000001
sg6
F33.901000000000003
sg7
F35.011000000000003
sg8
F34.322000000000003
sg9
F45.899999999999999
sg10
F47.378
sg11
F39.5
sg12
F40.960999999999999
sg13
F40.914000000000001
ssS'accuracy'
p41
(dp42
g4
F50.621000000000002
sg5
F49.555
sg6
F47.465000000000003
sg7
F47.713000000000001
sg8
F47.642000000000003
sg9
F49.558
sg10
F50.302999999999997
sg11
F49.697000000000003
sg12
F49.555
sg13
F50.335999999999999
ss.