(dp1
S'recall'
p2
(dp3
S'KNN'
p4
F59.042000000000002
sS'LDA'
p5
F75.512
sS'SVM'
p6
F78.558999999999997
sS'QDA'
p7
F77.039000000000001
sS'NB'
p8
F60.311
sS'Random Forests'
p9
F64.004000000000005
sS'CART'
p10
F56.420999999999999
sS'Multi Layer Perceptron'
p11
F77.603999999999999
sS'LR'
p12
F77.113
sS'Perceptron'
p13
F74.313000000000002
ssS'precision'
p14
(dp15
g4
F69.932000000000002
sg5
F71.212000000000003
sg6
F67.644000000000005
sg7
F68.129000000000005
sg8
F68.742000000000004
sg9
F72.189999999999998
sg10
F71.093999999999994
sg11
F68.067999999999998
sg12
F71.459000000000003
sg13
F69.185000000000002
ssS'time'
p16
(dp17
g4
F823.72699999999998
sg5
F770.98900000000003
sg6
F1368.4110000000001
sg7
F758.89599999999996
sg8
F755.12599999999998
sg9
F1019.9640000000001
sg10
F833.38400000000001
sg11
F5915.4780000000001
sg12
F756.54899999999998
sg13
F749.98000000000002
ssS'9'
(dp18
S'recall'
p19
(dp20
S'KNN'
p21
F60.954999999999998
sS'LDA'
p22
F73.430999999999997
sS'SVM'
p23
F78.561000000000007
sS'QDA'
p24
F77.519999999999996
sS'NB'
p25
F58.311999999999998
sS'Random Forests'
p26
F57.195999999999998
sS'CART'
p27
F59.988
sS'Multi Layer Perceptron'
p28
F74.155000000000001
sS'LR'
p29
F75.350999999999999
sS'Perceptron'
p30
F70.477000000000004
ssS'time'
p31
(dp32
g21
F841.00199999999995
sg22
F773.245
sg23
F1284.694
sg24
F769.78999999999996
sg25
F803.51999999999998
sg26
F1276.393
sg27
F813.02599999999995
sg28
F5714.6400000000003
sg29
F811.07600000000002
sg30
F757.99599999999998
ssS'precision'
p33
(dp34
g21
F70.700999999999993
sg22
F69.444999999999993
sg23
F65.355000000000004
sg24
F69.721999999999994
sg25
F69.519000000000005
sg26
F70.388999999999996
sg27
F72.031999999999996
sg28
F67.385999999999996
sg29
F68.933000000000007
sg30
F71.852999999999994
ssS'fscore'
p35
(dp36
g21
F63.954999999999998
sg22
F69.161000000000001
sg23
F69.905000000000001
sg24
F71.085999999999999
sg25
F57.805
sg26
F58.667000000000002
sg27
F63.405000000000001
sg28
F70.108000000000004
sg29
F69.960999999999999
sg30
F69.373999999999995
ssS'accuracy'
p37
(dp38
g21
F60.954999999999998
sg22
F73.430999999999997
sg23
F78.561000000000007
sg24
F77.519999999999996
sg25
F58.311999999999998
sg26
F57.195999999999998
sg27
F59.988
sg28
F74.155000000000001
sg29
F75.350999999999999
sg30
F70.477000000000004
sssS'fscore'
p39
(dp40
g4
F62.503
sg5
F70.337999999999994
sg6
F70.560000000000002
sg7
F70.652000000000001
sg8
F60.048000000000002
sg9
F66.134
sg10
F59.119
sg11
F70.805000000000007
sg12
F70.899000000000001
sg13
F70.432000000000002
ssS'accuracy'
p41
(dp42
g4
F59.042000000000002
sg5
F75.512
sg6
F78.558999999999997
sg7
F77.039000000000001
sg8
F60.311
sg9
F64.004000000000005
sg10
F56.420999999999999
sg11
F77.603999999999999
sg12
F77.113
sg13
F74.313000000000002
ss.