(dp1
S'0'
(dp2
S'recall'
p3
(dp4
S'KNN'
p5
F70.759
sS'LDA'
p6
F39.377000000000002
sS'SVM'
p7
F86.247
sS'QDA'
p8
F76.302000000000007
sS'NB'
p9
F15.619
sS'Random Forests'
p10
F77.504999999999995
sS'CART'
p11
F53.078000000000003
sS'Multi Layer Perceptron'
p12
F77.899000000000001
sS'LR'
p13
F61.609000000000002
sS'Perceptron'
p14
F84.510999999999996
ssS'time'
p15
(dp16
g5
F94.677000000000007
sg6
F48.481999999999999
sg7
F279.30700000000002
sg8
F38.470999999999997
sg9
F35.872
sg10
F325.92099999999999
sg11
F52.945
sg12
F3081.538
sg13
F60.073
sg14
F33.645000000000003
ssS'precision'
p17
(dp18
g5
F77.671000000000006
sg6
F80.837999999999994
sg7
F74.385000000000005
sg8
F74.406000000000006
sg9
F88.174999999999997
sg10
F75.584999999999994
sg11
F75.338999999999999
sg12
F74.840999999999994
sg13
F75.587999999999994
sg14
F74.801000000000002
ssS'fscore'
p19
(dp20
g5
F73.707999999999998
sg6
F43.020000000000003
sg7
F79.878
sg8
F74.454999999999998
sg9
F7.0179999999999998
sg10
F76.405000000000001
sg11
F59.738999999999997
sg12
F75.826999999999998
sg13
F63.969000000000001
sg14
F79.301000000000002
ssS'accuracy'
p21
(dp22
g5
F70.759
sg6
F39.377000000000002
sg7
F86.247
sg8
F76.302000000000007
sg9
F15.619
sg10
F77.504999999999995
sg11
F53.078000000000003
sg12
F77.899000000000001
sg13
F61.609000000000002
sg14
F84.510999999999996
sss.