(dp1
S'1'
(dp2
S'recall'
p3
(dp4
S'KNN'
p5
F86.228999999999999
sS'LDA'
p6
F87.426000000000002
sS'SVM'
p7
F88.703000000000003
sS'QDA'
p8
F80.519999999999996
sS'NB'
p9
F42.418999999999997
sS'Random Forests'
p10
F88.063999999999993
sS'CART'
p11
F74.293000000000006
sS'Multi Layer Perceptron'
p12
F88.703000000000003
sS'LR'
p13
F87.665000000000006
sS'Perceptron'
p14
F68.504000000000005
ssS'time'
p15
(dp16
g5
F233.30000000000001
sg6
F77.896000000000001
sg7
F592.53599999999994
sg8
F64.608999999999995
sg9
F58.631
sg10
F362.42500000000001
sg11
F90.122
sg12
F2086.7739999999999
sg13
F110.86199999999999
sg14
F56.347999999999999
ssS'precision'
p17
(dp18
g5
F80.385999999999996
sg6
F81.019999999999996
sg7
F78.682000000000002
sg8
F80.165999999999997
sg9
F82.082999999999998
sg10
F79.905000000000001
sg11
F79.233000000000004
sg12
F78.682000000000002
sg13
F79.945999999999998
sg14
F79.304000000000002
ssS'fscore'
p19
(dp20
g5
F82.906999999999996
sg6
F83.203000000000003
sg7
F83.391999999999996
sg8
F79.363
sg9
F42.597999999999999
sg10
F83.281999999999996
sg11
F76.483000000000004
sg12
F83.391999999999996
sg13
F83.253
sg14
F68.292000000000002
ssS'accuracy'
p21
(dp22
g5
F86.228999999999999
sg6
F87.426000000000002
sg7
F88.703000000000003
sg8
F80.519999999999996
sg9
F42.418999999999997
sg10
F88.063999999999993
sg11
F74.293000000000006
sg12
F88.703000000000003
sg13
F87.665000000000006
sg14
F68.504000000000005
sssS'0'
(dp23
g3
(dp24
g5
F70.759
sg6
F39.377000000000002
sg7
F86.247
sg8
F76.302000000000007
sg9
F15.619
sg10
F77.504999999999995
sg11
F53.078000000000003
sg12
F77.899000000000001
sg13
F61.609000000000002
sg14
F84.510999999999996
ssg15
(dp25
g5
F94.677000000000007
sg6
F48.481999999999999
sg7
F279.30700000000002
sg8
F38.470999999999997
sg9
F35.872
sg10
F325.92099999999999
sg11
F52.945
sg12
F3081.538
sg13
F60.073
sg14
F33.645000000000003
ssg17
(dp26
g5
F77.671000000000006
sg6
F80.837999999999994
sg7
F74.385000000000005
sg8
F74.406000000000006
sg9
F88.174999999999997
sg10
F75.584999999999994
sg11
F75.338999999999999
sg12
F74.840999999999994
sg13
F75.587999999999994
sg14
F74.801000000000002
ssg19
(dp27
g5
F73.707999999999998
sg6
F43.020000000000003
sg7
F79.878
sg8
F74.454999999999998
sg9
F7.0179999999999998
sg10
F76.405000000000001
sg11
F59.738999999999997
sg12
F75.826999999999998
sg13
F63.969000000000001
sg14
F79.301000000000002
ssg21
(dp28
g5
F70.759
sg6
F39.377000000000002
sg7
F86.247
sg8
F76.302000000000007
sg9
F15.619
sg10
F77.504999999999995
sg11
F53.078000000000003
sg12
F77.899000000000001
sg13
F61.609000000000002
sg14
F84.510999999999996
sssS'2'
(dp29
g3
(dp30
g5
F88.289000000000001
sg6
F36.527999999999999
sg7
F90.140000000000001
sg8
F89.057000000000002
sg9
F21.553999999999998
sg10
F88.599000000000004
sg11
F75.948999999999998
sg12
F87.063000000000002
sg13
F30.210000000000001
sg14
F57.325000000000003
ssg15
(dp31
g5
F50.886000000000003
sg6
F33.792999999999999
sg7
F63.546999999999997
sg8
F23.625
sg9
F26.154
sg10
F300.83999999999997
sg11
F30.542000000000002
sg12
F1374.723
sg13
F39.014000000000003
sg14
F20.353999999999999
ssg17
(dp32
g5
F81.484999999999999
sg6
F80.632999999999996
sg7
F81.251999999999995
sg8
F81.156000000000006
sg9
F89.355999999999995
sg10
F81.108999999999995
sg11
F81.561999999999998
sg12
F81.159999999999997
sg13
F79.578000000000003
sg14
F80.780000000000001
ssg19
(dp33
g5
F84.715000000000003
sg6
F42.360999999999997
sg7
F85.465000000000003
sg8
F84.915999999999997
sg9
F18.324000000000002
sg10
F84.680000000000007
sg11
F78.308999999999997
sg12
F83.921000000000006
sg13
F36.667000000000002
sg14
F62.317
ssg21
(dp34
g5
F88.289000000000001
sg6
F36.527999999999999
sg7
F90.140000000000001
sg8
F89.057000000000002
sg9
F21.553999999999998
sg10
F88.599000000000004
sg11
F75.948999999999998
sg12
F87.063000000000002
sg13
F30.210000000000001
sg14
F57.325000000000003
sss.