(dp1
S'1'
(dp2
S'recall'
p3
(dp4
S'KNN'
p5
F86.228999999999999
sS'LDA'
p6
F87.426000000000002
sS'SVM'
p7
F88.703000000000003
sS'QDA'
p8
F80.519999999999996
sS'NB'
p9
F42.418999999999997
sS'Random Forests'
p10
F88.063999999999993
sS'CART'
p11
F74.293000000000006
sS'Multi Layer Perceptron'
p12
F88.703000000000003
sS'LR'
p13
F87.665000000000006
sS'Perceptron'
p14
F68.504000000000005
ssS'time'
p15
(dp16
g5
F233.30000000000001
sg6
F77.896000000000001
sg7
F592.53599999999994
sg8
F64.608999999999995
sg9
F58.631
sg10
F362.42500000000001
sg11
F90.122
sg12
F2086.7739999999999
sg13
F110.86199999999999
sg14
F56.347999999999999
ssS'precision'
p17
(dp18
g5
F80.385999999999996
sg6
F81.019999999999996
sg7
F78.682000000000002
sg8
F80.165999999999997
sg9
F82.082999999999998
sg10
F79.905000000000001
sg11
F79.233000000000004
sg12
F78.682000000000002
sg13
F79.945999999999998
sg14
F79.304000000000002
ssS'fscore'
p19
(dp20
g5
F82.906999999999996
sg6
F83.203000000000003
sg7
F83.391999999999996
sg8
F79.363
sg9
F42.597999999999999
sg10
F83.281999999999996
sg11
F76.483000000000004
sg12
F83.391999999999996
sg13
F83.253
sg14
F68.292000000000002
ssS'accuracy'
p21
(dp22
g5
F86.228999999999999
sg6
F87.426000000000002
sg7
F88.703000000000003
sg8
F80.519999999999996
sg9
F42.418999999999997
sg10
F88.063999999999993
sg11
F74.293000000000006
sg12
F88.703000000000003
sg13
F87.665000000000006
sg14
F68.504000000000005
sssS'0'
(dp23
g3
(dp24
g5
F70.759
sg6
F39.377000000000002
sg7
F86.247
sg8
F76.302000000000007
sg9
F15.619
sg10
F77.504999999999995
sg11
F53.078000000000003
sg12
F77.899000000000001
sg13
F61.609000000000002
sg14
F84.510999999999996
ssg15
(dp25
g5
F94.677000000000007
sg6
F48.481999999999999
sg7
F279.30700000000002
sg8
F38.470999999999997
sg9
F35.872
sg10
F325.92099999999999
sg11
F52.945
sg12
F3081.538
sg13
F60.073
sg14
F33.645000000000003
ssg17
(dp26
g5
F77.671000000000006
sg6
F80.837999999999994
sg7
F74.385000000000005
sg8
F74.406000000000006
sg9
F88.174999999999997
sg10
F75.584999999999994
sg11
F75.338999999999999
sg12
F74.840999999999994
sg13
F75.587999999999994
sg14
F74.801000000000002
ssg19
(dp27
g5
F73.707999999999998
sg6
F43.020000000000003
sg7
F79.878
sg8
F74.454999999999998
sg9
F7.0179999999999998
sg10
F76.405000000000001
sg11
F59.738999999999997
sg12
F75.826999999999998
sg13
F63.969000000000001
sg14
F79.301000000000002
ssg21
(dp28
g5
F70.759
sg6
F39.377000000000002
sg7
F86.247
sg8
F76.302000000000007
sg9
F15.619
sg10
F77.504999999999995
sg11
F53.078000000000003
sg12
F77.899000000000001
sg13
F61.609000000000002
sg14
F84.510999999999996
sssS'3'
(dp29
g3
(dp30
g5
F90.174999999999997
sg6
F63.887
sg7
F91.058000000000007
sg8
F90.869
sg9
F11.395
sg10
F90.995000000000005
sg11
F80.471999999999994
sg12
F64.070999999999998
sg13
F73.721999999999994
sg14
F35.878
ssg15
(dp31
g5
F100.22799999999999
sg6
F54.284999999999997
sg7
F224.98699999999999
sg8
F50.807000000000002
sg9
F44.494
sg10
F356.37
sg11
F54.707000000000001
sg12
F4269.241
sg13
F67.674000000000007
sg14
F37.030000000000001
ssg17
(dp32
g5
F82.843999999999994
sg6
F86.061000000000007
sg7
F82.915999999999997
sg8
F82.900999999999996
sg9
F91.878
sg10
F83.548000000000002
sg11
F83.060000000000002
sg12
F85.483999999999995
sg13
F85.736000000000004
sg14
F88.427000000000007
ssg19
(dp33
g5
F86.352000000000004
sg6
F67.853999999999999
sg7
F86.796999999999997
sg8
F86.701999999999998
sg9
F6.2300000000000004
sg10
F86.876000000000005
sg11
F81.593000000000004
sg12
F67.301000000000002
sg13
F75.021000000000001
sg14
F35.487000000000002
ssg21
(dp34
g5
F90.174999999999997
sg6
F63.887
sg7
F91.058000000000007
sg8
F90.869
sg9
F11.395
sg10
F90.995000000000005
sg11
F80.471999999999994
sg12
F64.070999999999998
sg13
F73.721999999999994
sg14
F35.878
sssS'2'
(dp35
g3
(dp36
g5
F88.289000000000001
sg6
F36.527999999999999
sg7
F90.140000000000001
sg8
F89.057000000000002
sg9
F21.553999999999998
sg10
F88.599000000000004
sg11
F75.948999999999998
sg12
F87.063000000000002
sg13
F30.210000000000001
sg14
F57.325000000000003
ssg15
(dp37
g5
F50.886000000000003
sg6
F33.792999999999999
sg7
F63.546999999999997
sg8
F23.625
sg9
F26.154
sg10
F300.83999999999997
sg11
F30.542000000000002
sg12
F1374.723
sg13
F39.014000000000003
sg14
F20.353999999999999
ssg17
(dp38
g5
F81.484999999999999
sg6
F80.632999999999996
sg7
F81.251999999999995
sg8
F81.156000000000006
sg9
F89.355999999999995
sg10
F81.108999999999995
sg11
F81.561999999999998
sg12
F81.159999999999997
sg13
F79.578000000000003
sg14
F80.780000000000001
ssg19
(dp39
g5
F84.715000000000003
sg6
F42.360999999999997
sg7
F85.465000000000003
sg8
F84.915999999999997
sg9
F18.324000000000002
sg10
F84.680000000000007
sg11
F78.308999999999997
sg12
F83.921000000000006
sg13
F36.667000000000002
sg14
F62.317
ssg21
(dp40
g5
F88.289000000000001
sg6
F36.527999999999999
sg7
F90.140000000000001
sg8
F89.057000000000002
sg9
F21.553999999999998
sg10
F88.599000000000004
sg11
F75.948999999999998
sg12
F87.063000000000002
sg13
F30.210000000000001
sg14
F57.325000000000003
sssS'5'
(dp41
g3
(dp42
g5
F57.384
sg6
F53.712000000000003
sg7
F66.730999999999995
sg8
F55.073
sg9
F32.881999999999998
sg10
F60.521999999999998
sg11
F55.234999999999999
sg12
F55.470999999999997
sg13
F53.518000000000001
sg14
F59.301000000000002
ssg15
(dp43
g5
F34.344000000000001
sg6
F31.056000000000001
sg7
F61.485999999999997
sg8
F19.337
sg9
F17.07
sg10
F279.322
sg11
F22.111999999999998
sg12
F240.71799999999999
sg13
F26.655999999999999
sg14
F18.637
ssg17
(dp44
g5
F59.390999999999998
sg6
F60.116
sg7
F44.747
sg8
F50.829000000000001
sg9
F24.207000000000001
sg10
F60.405000000000001
sg11
F60.280999999999999
sg12
F54.777000000000001
sg13
F58.106000000000002
sg14
F57.302999999999997
ssg19
(dp45
g5
F57.569000000000003
sg6
F46.829000000000001
sg7
F53.570999999999998
sg8
F49.795000000000002
sg9
F16.704999999999998
sg10
F59.732999999999997
sg11
F55.154000000000003
sg12
F45.250999999999998
sg13
F46.463000000000001
sg14
F50.107999999999997
ssg21
(dp46
g5
F57.384
sg6
F53.712000000000003
sg7
F66.730999999999995
sg8
F55.073
sg9
F32.881999999999998
sg10
F60.521999999999998
sg11
F55.234999999999999
sg12
F55.470999999999997
sg13
F53.518000000000001
sg14
F59.301000000000002
sssS'4'
(dp47
g3
(dp48
g5
F72.058999999999997
sg6
F21.271000000000001
sg7
F82.007999999999996
sg8
F82.007999999999996
sg9
F57.085000000000001
sg10
F64.991
sg11
F57.947000000000003
sg12
F20.318000000000001
sg13
F20.783000000000001
sg14
F24.311
ssg15
(dp49
g5
F24.722999999999999
sg6
F23.445
sg7
F17.943999999999999
sg8
F17.591999999999999
sg9
F14.08
sg10
F275.36200000000002
sg11
F13.715999999999999
sg12
F824.27800000000002
sg13
F20.939
sg14
F13.125
ssg17
(dp50
g5
F71.024000000000001
sg6
F52.457000000000001
sg7
F67.259
sg8
F67.259
sg9
F72.069000000000003
sg10
F74.183999999999997
sg11
F70.489999999999995
sg12
F31.693000000000001
sg13
F35.908000000000001
sg14
F47.969999999999999
ssg19
(dp51
g5
F70.718000000000004
sg6
F12.185
sg7
F73.903000000000006
sg8
F73.903000000000006
sg9
F55.911999999999999
sg10
F67.012
sg11
F61.176000000000002
sg12
F10.836
sg13
F10.618
sg14
F17.263999999999999
ssg21
(dp52
g5
F72.058999999999997
sg6
F21.271000000000001
sg7
F82.007999999999996
sg8
F82.007999999999996
sg9
F57.085000000000001
sg10
F64.991
sg11
F57.947000000000003
sg12
F20.318000000000001
sg13
F20.783000000000001
sg14
F24.311
sssS'7'
(dp53
g3
(dp54
g5
F59.006999999999998
sg6
F27.167999999999999
sg7
F81.834000000000003
sg8
F79.069000000000003
sg9
F23.030000000000001
sg10
F76.984999999999999
sg11
F64.375
sg12
F76.310000000000002
sg13
F27.507000000000001
sg14
F51.493000000000002
ssg15
(dp55
g5
F39.948999999999998
sg6
F25.907
sg7
F63.256999999999998
sg8
F22.361000000000001
sg9
F19.497
sg10
F282.46800000000002
sg11
F25.119
sg12
F1985.296
sg13
F32.191000000000003
sg14
F17.387
ssg17
(dp56
g5
F69.706999999999994
sg6
F79.730999999999995
sg7
F66.966999999999999
sg8
F69.555000000000007
sg9
F52.558
sg10
F67.876999999999995
sg11
F68.703000000000003
sg12
F69.691000000000003
sg13
F80.299999999999997
sg14
F76.988
ssg19
(dp57
g5
F62.649000000000001
sg6
F22.989000000000001
sg7
F73.658000000000001
sg8
F73.019999999999996
sg9
F14.439
sg10
F71.989000000000004
sg11
F64.506
sg12
F72.137
sg13
F23.449000000000002
sg14
F46.933999999999997
ssg21
(dp58
g5
F59.006999999999998
sg6
F27.167999999999999
sg7
F81.834000000000003
sg8
F79.069000000000003
sg9
F23.030000000000001
sg10
F76.984999999999999
sg11
F64.375
sg12
F76.310000000000002
sg13
F27.507000000000001
sg14
F51.493000000000002
sssS'6'
(dp59
g3
(dp60
g5
F54.100999999999999
sg6
F45.716999999999999
sg7
F54.737000000000002
sg8
F48.459000000000003
sg9
F41.460000000000001
sg10
F53.490000000000002
sg11
F51.557000000000002
sg12
F48.241
sg13
F45.924999999999997
sg14
F49.723999999999997
ssg15
(dp61
g5
F38.195999999999998
sg6
F33.695
sg7
F69.995999999999995
sg8
F23.542000000000002
sg9
F17.771999999999998
sg10
F287.99000000000001
sg11
F19.568999999999999
sg12
F1640.221
sg13
F29.184000000000001
sg14
F14.608000000000001
ssg17
(dp62
g5
F47.878999999999998
sg6
F47.567
sg7
F44.881
sg8
F40.866
sg9
F17.931000000000001
sg10
F46.119999999999997
sg11
F50.18
sg12
F52.087000000000003
sg13
F52.036000000000001
sg14
F45.831000000000003
ssg19
(dp63
g5
F45.829999999999998
sg6
F37.539000000000001
sg7
F40.451000000000001
sg8
F39.439
sg9
F25.032
sg10
F46.667000000000002
sg11
F50.130000000000003
sg12
F42.664000000000001
sg13
F37.530999999999999
sg14
F42.527000000000001
ssg21
(dp64
g5
F54.100999999999999
sg6
F45.716999999999999
sg7
F54.737000000000002
sg8
F48.459000000000003
sg9
F41.460000000000001
sg10
F53.490000000000002
sg11
F51.557000000000002
sg12
F48.241
sg13
F45.924999999999997
sg14
F49.723999999999997
sssS'9'
(dp65
g3
(dp66
g5
F70.319999999999993
sg6
F75.674000000000007
sg7
F79.120000000000005
sg8
F38.234999999999999
sg9
F40.792000000000002
sg10
F72.405000000000001
sg11
F50.396999999999998
sg12
F73.921000000000006
sg13
F77.278000000000006
sg14
F73.113
ssg15
(dp67
g5
F93.378
sg6
F47.911999999999999
sg7
F183.399
sg8
F34.988
sg9
F38.396999999999998
sg10
F280.17899999999997
sg11
F39.68
sg12
F2736.2359999999999
sg13
F57.414999999999999
sg14
F28.306000000000001
ssg17
(dp68
g5
F68.238
sg6
F68.597999999999999
sg7
F62.600000000000001
sg8
F72.858000000000004
sg9
F74.046999999999997
sg10
F68.878
sg11
F64.697000000000003
sg12
F68.855000000000004
sg13
F68.054000000000002
sg14
F66.540999999999997
ssg19
(dp69
g5
F68.870000000000005
sg6
F69.915999999999997
sg7
F69.897000000000006
sg8
F37.802999999999997
sg9
F41.874000000000002
sg10
F69.796999999999997
sg11
F53.015000000000001
sg12
F70.075999999999993
sg13
F70.120999999999995
sg14
F68.950999999999993
ssg21
(dp70
g5
F70.319999999999993
sg6
F75.674000000000007
sg7
F79.120000000000005
sg8
F38.234999999999999
sg9
F40.792000000000002
sg10
F72.405000000000001
sg11
F50.396999999999998
sg12
F73.921000000000006
sg13
F77.278000000000006
sg14
F73.113
sssS'8'
(dp71
g3
(dp72
g5
F51.188000000000002
sg6
F49.909999999999997
sg7
F47.536000000000001
sg8
F47.465000000000003
sg9
F47.713000000000001
sg10
F48.813000000000002
sg11
F48.813000000000002
sg12
F48.067999999999998
sg13
F49.875
sg14
F48.421999999999997
ssg15
(dp73
g5
F245.89699999999999
sg6
F97.759
sg7
F1740.46
sg8
F77.007000000000005
sg9
F86.772000000000006
sg10
F382.82900000000001
sg11
F107.857
sg12
F3231.567
sg13
F115.59399999999999
sg14
F64.337999999999994
ssg17
(dp74
g5
F53.463000000000001
sg6
F55.363999999999997
sg7
F56.756999999999998
sg8
F56.722999999999999
sg9
F60.372
sg10
F50.137999999999998
sg11
F49.594999999999999
sg12
F56.671999999999997
sg13
F55.673000000000002
sg14
F49.237000000000002
ssg19
(dp75
g5
F49.286999999999999
sg6
F42.622
sg7
F33.890000000000001
sg8
F34.162999999999997
sg9
F34.021000000000001
sg10
F47.304000000000002
sg11
F47.490000000000002
sg12
F35.75
sg13
F42.576999999999998
sg14
F38.957000000000001
ssg21
(dp76
g5
F51.188000000000002
sg6
F49.909999999999997
sg7
F47.536000000000001
sg8
F47.465000000000003
sg9
F47.713000000000001
sg10
F48.813000000000002
sg11
F48.813000000000002
sg12
F48.067999999999998
sg13
F49.875
sg14
F48.421999999999997
sss.